; Function Attrs: inlinehint mustprogress uwtable
define internal void @"_ZN3$_38__invokeEv"() #4 align 2 personality ptr @__gxx_personality_v0 {
  %1 = load atomic i64, ptr getelementptr inbounds nuw (i8, ptr @FLAGS_log_prefix, i64 88) acquire, align 8
  %.not.i.i.i.i = icmp eq i64 %1, 0
  br i1 %.not.i.i.i.i, label %_ZNK4absl14flags_internal9FlagValueIbLNS0_20FlagValueStorageKindE0EE3GetERKNS0_12SequenceLockERb.exit.i.i.i.i, label %_ZNK4absl14flags_internal9FlagValueIbLNS0_20FlagValueStorageKindE0EE3GetERKNS0_12SequenceLockERb.exit.thread.i.i.i.i, !prof !20

_ZNK4absl14flags_internal9FlagValueIbLNS0_20FlagValueStorageKindE0EE3GetERKNS0_12SequenceLockERb.exit.thread.i.i.i.i: ; preds = %0
  %2 = trunc i64 %1 to i1
  br label %"_ZNK3$_3clEv.exit"

_ZNK4absl14flags_internal9FlagValueIbLNS0_20FlagValueStorageKindE0EE3GetERKNS0_12SequenceLockERb.exit.i.i.i.i: ; preds = %0
  %3 = tail call noundef zeroext i1 @_ZNK4absl14flags_internal8FlagImpl11ReadOneBoolEv(ptr noundef nonnull align 8 dereferenceable(96) @FLAGS_log_prefix)
  br label %"_ZNK3$_3clEv.exit"

"_ZNK3$_3clEv.exit":                              ; preds = %_ZNK4absl14flags_internal9FlagValueIbLNS0_20FlagValueStorageKindE0EE3GetERKNS0_12SequenceLockERb.exit.thread.i.i.i.i, %_ZNK4absl14flags_internal9FlagValueIbLNS0_20FlagValueStorageKindE0EE3GetERKNS0_12SequenceLockERb.exit.i.i.i.i
  %.sroa.0.0.i.i.i.i = phi i1 [ %3, %_ZNK4absl14flags_internal9FlagValueIbLNS0_20FlagValueStorageKindE0EE3GetERKNS0_12SequenceLockERb.exit.i.i.i.i ], [ %2, %_ZNK4absl14flags_internal9FlagValueIbLNS0_20FlagValueStorageKindE0EE3GetERKNS0_12SequenceLockERb.exit.thread.i.i.i.i ]
  tail call void @_ZN4absl12log_internal18RawEnableLogPrefixEb(i1 noundef zeroext %.sroa.0.0.i.i.i.i)
  ret void
}